; Function Attrs: nounwind uwtable
define noalias nonnull ptr @l_Lean_Elab_Term_withNarrowedArgTacticReuse___at_Lean_Elab_Term_runTactic___spec__19___lambda__1(ptr noundef %0, ptr noundef %1) local_unnamed_addr #0 {
  %3 = tail call ptr @l_Lean_Syntax_getArgs(ptr noundef %1) #7
  %4 = ptrtoint ptr %0 to i64
  %5 = and i64 %4, 1
  %.not = icmp eq i64 %5, 0
  br i1 %.not, label %6, label %lean_inc.exit

6:                                                ; preds = %2
  %.val.i = load i32, ptr %0, align 4, !tbaa !7
  %7 = icmp sgt i32 %.val.i, 0
  br i1 %7, label %8, label %10, !prof !12

8:                                                ; preds = %6
  %9 = add nuw i32 %.val.i, 1
  store i32 %9, ptr %0, align 4, !tbaa !7
  br label %lean_inc.exit

10:                                               ; preds = %6
  %.not.i24 = icmp eq i32 %.val.i, 0
  br i1 %.not.i24, label %lean_inc.exit, label %11

11:                                               ; preds = %10
  tail call void @lean_inc_ref_cold(ptr noundef nonnull %0) #7
  br label %lean_inc.exit

lean_inc.exit:                                    ; preds = %11, %10, %8, %2
  %12 = tail call ptr @l_Array_toSubarray___rarg(ptr noundef %3, ptr noundef nonnull inttoptr (i64 1 to ptr), ptr noundef %0) #7
  %13 = tail call ptr @l_Array_ofSubarray___rarg(ptr noundef %12) #7
  %14 = ptrtoint ptr %12 to i64
  %15 = and i64 %14, 1
  %.not26 = icmp eq i64 %15, 0
  br i1 %.not26, label %16, label %lean_dec.exit21

16:                                               ; preds = %lean_inc.exit
  %17 = load i32, ptr %12, align 4, !tbaa !7
  %18 = icmp sgt i32 %17, 1
  br i1 %18, label %19, label %21, !prof !12

19:                                               ; preds = %16
  %20 = add nsw i32 %17, -1
  store i32 %20, ptr %12, align 4, !tbaa !7
  br label %lean_dec.exit21

21:                                               ; preds = %16
  %.not.i = icmp eq i32 %17, 0
  br i1 %.not.i, label %lean_dec.exit21, label %22

22:                                               ; preds = %21
  tail call void @lean_dec_ref_cold(ptr noundef nonnull %12) #7
  br label %lean_dec.exit21

lean_dec.exit21:                                  ; preds = %22, %21, %19, %lean_inc.exit
  %23 = load ptr, ptr @l_Lean_Elab_Term_withNarrowedArgTacticReuse___at_Lean_Elab_Term_runTactic___spec__19___lambda__1___closed__2, align 8, !tbaa !10
  tail call void @lean_inc_heartbeat() #7
  %24 = tail call noalias ptr @mi_malloc_small(i64 noundef 32) #7
  %25 = icmp eq ptr %24, null
  br i1 %25, label %26, label %lean_alloc_ctor.exit

26:                                               ; preds = %lean_dec.exit21
  tail call void @lean_internal_panic_out_of_memory() #8
  unreachable

lean_alloc_ctor.exit:                             ; preds = %lean_dec.exit21
  %27 = getelementptr inbounds nuw i8, ptr %24, i64 4
  store i32 1, ptr %24, align 4, !tbaa !7
  store i32 16973856, ptr %27, align 4
  %28 = getelementptr inbounds nuw i8, ptr %24, i64 8
  store ptr inttoptr (i64 5 to ptr), ptr %28, align 8, !tbaa !10
  %29 = getelementptr inbounds nuw i8, ptr %24, i64 16
  store ptr %23, ptr %29, align 8, !tbaa !10
  %30 = getelementptr inbounds nuw i8, ptr %24, i64 24
  store ptr %13, ptr %30, align 8, !tbaa !10
  %31 = tail call ptr @l_Lean_Syntax_getArg(ptr noundef %1, ptr noundef %0) #7
  br i1 %.not, label %32, label %lean_dec.exit

32:                                               ; preds = %lean_alloc_ctor.exit
  %33 = load i32, ptr %0, align 4, !tbaa !7
  %34 = icmp sgt i32 %33, 1
  br i1 %34, label %35, label %37, !prof !12

35:                                               ; preds = %32
  %36 = add nsw i32 %33, -1
  store i32 %36, ptr %0, align 4, !tbaa !7
  br label %lean_dec.exit

37:                                               ; preds = %32
  %.not.i22 = icmp eq i32 %33, 0
  br i1 %.not.i22, label %lean_dec.exit, label %38

38:                                               ; preds = %37
  tail call void @lean_dec_ref_cold(ptr noundef nonnull %0) #7
  br label %lean_dec.exit

lean_dec.exit:                                    ; preds = %38, %37, %35, %lean_alloc_ctor.exit
  tail call void @lean_inc_heartbeat() #7
  %39 = tail call noalias ptr @mi_malloc_small(i64 noundef 24) #7
  %40 = icmp eq ptr %39, null
  br i1 %40, label %41, label %lean_alloc_ctor.exit25

41:                                               ; preds = %lean_dec.exit
  tail call void @lean_internal_panic_out_of_memory() #8
  unreachable

lean_alloc_ctor.exit25:                           ; preds = %lean_dec.exit
  %42 = getelementptr inbounds nuw i8, ptr %39, i64 4
  store i32 1, ptr %39, align 4, !tbaa !7
  store i32 131096, ptr %42, align 4
  %43 = getelementptr inbounds nuw i8, ptr %39, i64 8
  store ptr %24, ptr %43, align 8, !tbaa !10
  %44 = getelementptr inbounds nuw i8, ptr %39, i64 16
  store ptr %31, ptr %44, align 8, !tbaa !10
  ret ptr %39
}